target datalayout = "e-m:e-p270:32:32-p271:32:32-p272:64:64-i64:64-i128:128-f80:128-n8:16:32:64-S128"
target triple = "x86_64-pc-linux-gnu"

%struct.uv_loop_s = type { ptr, i32, [2 x ptr], %union.anon.1, ptr, i32, i64, i32, [2 x ptr], [2 x ptr], ptr, i32, i32, [2 x ptr], %union.pthread_mutex_t, %struct.uv_async_s, %union.pthread_rwlock_t, ptr, [2 x ptr], [2 x ptr], [2 x ptr], [2 x ptr], [2 x ptr], ptr, %struct.uv__io_s, i32, %struct.anon, i64, i64, [2 x i32], %struct.uv__io_s, %struct.uv_signal_s, i32, %struct.uv__io_s, ptr, i32 }
%union.anon.1 = type { ptr }
%union.pthread_mutex_t = type { %struct.__pthread_mutex_s }
%struct.__pthread_mutex_s = type { i32, i32, i32, i32, i32, i16, i16, %struct.__pthread_internal_list }
%struct.__pthread_internal_list = type { ptr, ptr }
%struct.uv_async_s = type { ptr, ptr, i32, ptr, [2 x ptr], %union.anon.2, ptr, i32, ptr, [2 x ptr], i32 }
%union.anon.2 = type { [4 x ptr] }
%union.pthread_rwlock_t = type { %struct.__pthread_rwlock_arch_t }
%struct.__pthread_rwlock_arch_t = type { i32, i32, i32, i32, i32, i32, i32, i32, i8, [7 x i8], i64, i32 }
%struct.anon = type { ptr, i32 }
%struct.uv_signal_s = type { ptr, ptr, i32, ptr, [2 x ptr], %union.anon.3, ptr, i32, ptr, i32, %struct.anon.4, i32, i32 }
%union.anon.3 = type { [4 x ptr] }
%struct.anon.4 = type { ptr, ptr, ptr, i32 }
%struct.uv__io_s = type { ptr, [2 x ptr], [2 x ptr], i32, i32, i32 }
%struct.uv_stream_s = type { ptr, ptr, i32, ptr, [2 x ptr], %union.anon, ptr, i32, i64, ptr, ptr, ptr, ptr, %struct.uv__io_s, [2 x ptr], [2 x ptr], ptr, i32, i32, ptr }
%union.anon = type { [4 x ptr] }

; Function Attrs: nounwind uwtable
define dso_local i32 @uv_listen(ptr noundef %0, i32 noundef %1, ptr noundef %2) #0 {
  %4 = alloca i32, align 4
  %5 = alloca ptr, align 8
  %6 = alloca i32, align 4
  %7 = alloca ptr, align 8
  %8 = alloca i32, align 4
  store ptr %0, ptr %5, align 8
  store i32 %1, ptr %6, align 4
  store ptr %2, ptr %7, align 8
  %9 = load ptr, ptr %5, align 8
  %10 = getelementptr inbounds %struct.uv_stream_s, ptr %9, i32 0, i32 7
  %11 = load i32, ptr %10, align 8
  %12 = and i32 %11, 3
  %13 = icmp ne i32 %12, 0
  br i1 %13, label %14, label %15

14:                                               ; preds = %3
  store i32 -22, ptr %4, align 4
  br label %64

15:                                               ; preds = %3
  %16 = load ptr, ptr %5, align 8
  %17 = getelementptr inbounds %struct.uv_stream_s, ptr %16, i32 0, i32 2
  %18 = load i32, ptr %17, align 8
  switch i32 %18, label %29 [
    i32 12, label %19
    i32 7, label %24
  ]

19:                                               ; preds = %15
  %20 = load ptr, ptr %5, align 8
  %21 = load i32, ptr %6, align 4
  %22 = load ptr, ptr %7, align 8
  %23 = call i32 @uv__tcp_listen(ptr noundef %20, i32 noundef %21, ptr noundef %22)
  store i32 %23, ptr %8, align 4
  br label %30

24:                                               ; preds = %15
  %25 = load ptr, ptr %5, align 8
  %26 = load i32, ptr %6, align 4
  %27 = load ptr, ptr %7, align 8
  %28 = call i32 @uv__pipe_listen(ptr noundef %25, i32 noundef %26, ptr noundef %27)
  store i32 %28, ptr %8, align 4
  br label %30

29:                                               ; preds = %15
  store i32 -22, ptr %8, align 4
  br label %30

30:                                               ; preds = %29, %24, %19
  %31 = load i32, ptr %8, align 4
  %32 = icmp eq i32 %31, 0
  br i1 %32, label %33, label %62

33:                                               ; preds = %30
  br label %34

34:                                               ; preds = %33
  %35 = load ptr, ptr %5, align 8
  %36 = getelementptr inbounds %struct.uv_stream_s, ptr %35, i32 0, i32 7
  %37 = load i32, ptr %36, align 8
  %38 = and i32 %37, 4
  %39 = icmp ne i32 %38, 0
  br i1 %39, label %40, label %41

40:                                               ; preds = %34
  br label %61

41:                                               ; preds = %34
  %42 = load ptr, ptr %5, align 8
  %43 = getelementptr inbounds %struct.uv_stream_s, ptr %42, i32 0, i32 7
  %44 = load i32, ptr %43, align 8
  %45 = or i32 %44, 4
  store i32 %45, ptr %43, align 8
  %46 = load ptr, ptr %5, align 8
  %47 = getelementptr inbounds %struct.uv_stream_s, ptr %46, i32 0, i32 7
  %48 = load i32, ptr %47, align 8
  %49 = and i32 %48, 8
  %50 = icmp ne i32 %49, 0
  br i1 %50, label %51, label %60

51:                                               ; preds = %41
  br label %52

52:                                               ; preds = %51
  %53 = load ptr, ptr %5, align 8
  %54 = getelementptr inbounds %struct.uv_stream_s, ptr %53, i32 0, i32 1
  %55 = load ptr, ptr %54, align 8
  %56 = getelementptr inbounds %struct.uv_loop_s, ptr %55, i32 0, i32 1
  %57 = load i32, ptr %56, align 8
  %58 = add i32 %57, 1
  store i32 %58, ptr %56, align 8
  br label %59

59:                                               ; preds = %52
  br label %60

60:                                               ; preds = %59, %41
  br label %61

61:                                               ; preds = %60, %40
  br label %62

62:                                               ; preds = %61, %30
  %63 = load i32, ptr %8, align 4
  store i32 %63, ptr %4, align 4
  br label %64

64:                                               ; preds = %62, %14
  %65 = load i32, ptr %4, align 4
  ret i32 %65
}