; Function Attrs: nounwind uwtable
define dso_local i32 @uv_listen(ptr noundef %0, i32 noundef %1, ptr noundef %2) local_unnamed_addr #0 {
  %4 = getelementptr inbounds nuw i8, ptr %0, i64 88
  %5 = load i32, ptr %4, align 8
  %6 = and i32 %5, 3
  %.not = icmp eq i32 %6, 0
  br i1 %.not, label %7, label %.thread

7:                                                ; preds = %3
  %8 = getelementptr inbounds nuw i8, ptr %0, i64 16
  %9 = load i32, ptr %8, align 8
  switch i32 %9, label %.thread [
    i32 12, label %10
    i32 7, label %12
  ]

10:                                               ; preds = %7
  %11 = tail call i32 @uv__tcp_listen(ptr noundef nonnull %0, i32 noundef %1, ptr noundef %2) #12
  br label %14

12:                                               ; preds = %7
  %13 = tail call i32 @uv__pipe_listen(ptr noundef nonnull %0, i32 noundef %1, ptr noundef %2) #12
  br label %14

14:                                               ; preds = %12, %10
  %.0 = phi i32 [ %13, %12 ], [ %11, %10 ]
  %15 = icmp eq i32 %.0, 0
  br i1 %15, label %16, label %.thread

16:                                               ; preds = %14
  %17 = load i32, ptr %4, align 8
  %18 = and i32 %17, 4
  %.not15 = icmp eq i32 %18, 0
  br i1 %.not15, label %19, label %.thread

19:                                               ; preds = %16
  %20 = or disjoint i32 %17, 4
  store i32 %20, ptr %4, align 8
  %21 = and i32 %17, 8
  %.not16 = icmp eq i32 %21, 0
  br i1 %.not16, label %.thread, label %22

22:                                               ; preds = %19
  %23 = getelementptr inbounds nuw i8, ptr %0, i64 8
  %24 = load ptr, ptr %23, align 8
  %25 = getelementptr inbounds nuw i8, ptr %24, i64 8
  %26 = load i32, ptr %25, align 8
  %27 = add i32 %26, 1
  store i32 %27, ptr %25, align 8
  br label %.thread

.thread:                                          ; preds = %7, %14, %19, %22, %16, %3
  %.014 = phi i32 [ -22, %3 ], [ 0, %16 ], [ 0, %22 ], [ 0, %19 ], [ %.0, %14 ], [ -22, %7 ]
  ret i32 %.014
}